; Function Attrs: nounwind uwtable
define i32 @Abc_NtkRetimeMinAreaInitValues_rec(ptr noundef %0) local_unnamed_addr #0 {
  %2 = tail call fastcc i32 @Abc_NodeIsTravIdCurrent(ptr noundef %0)
  %.not = icmp eq i32 %2, 0
  br i1 %.not, label %8, label %3

3:                                                ; preds = %1
  %4 = getelementptr inbounds nuw i8, ptr %0, i64 64
  %5 = load ptr, ptr %4, align 8, !tbaa !58
  %6 = ptrtoint ptr %5 to i64
  %7 = trunc i64 %6 to i32
  br label %common.ret29

8:                                                ; preds = %1
  %.val22 = load ptr, ptr %0, align 8, !tbaa !38
  %9 = getelementptr i8, ptr %0, i64 16
  %.val23 = load i32, ptr %9, align 8, !tbaa !59
  %10 = getelementptr inbounds nuw i8, ptr %.val22, i64 216
  %11 = load i32, ptr %10, align 8, !tbaa !57
  %12 = getelementptr inbounds nuw i8, ptr %.val22, i64 224
  %13 = add nsw i32 %.val23, 1
  %14 = getelementptr inbounds nuw i8, ptr %.val22, i64 228
  %15 = load i32, ptr %14, align 4, !tbaa !56
  %.not.i.not.i.i.i = icmp slt i32 %.val23, %15
  br i1 %.not.i.not.i.i.i, label %Abc_NodeSetTravIdCurrent.exit, label %16

16:                                               ; preds = %8
  %17 = load i32, ptr %12, align 8, !tbaa !55
  %18 = shl nsw i32 %17, 1
  %.not.i.i.i = icmp slt i32 %.val23, %18
  %.not.i.i.not.i.i.i = icmp sgt i32 %17, %.val23
  br i1 %.not.i.i.i, label %31, label %19

19:                                               ; preds = %16
  br i1 %.not.i.i.not.i.i.i, label %Vec_IntGrow.exit.i.i.i.i, label %20

20:                                               ; preds = %19
  %21 = getelementptr inbounds nuw i8, ptr %.val22, i64 232
  %22 = load ptr, ptr %21, align 8, !tbaa !10
  %.not9.i.i.i.i.i = icmp eq ptr %22, null
  %23 = sext i32 %13 to i64
  %24 = shl nsw i64 %23, 2
  br i1 %.not9.i.i.i.i.i, label %27, label %25

25:                                               ; preds = %20
  %26 = tail call ptr @realloc(ptr noundef nonnull %22, i64 noundef %24) #11
  br label %29

27:                                               ; preds = %20
  %28 = tail call noalias ptr @malloc(i64 noundef %24) #10
  br label %29

29:                                               ; preds = %27, %25
  %30 = phi ptr [ %26, %25 ], [ %28, %27 ]
  store ptr %30, ptr %21, align 8, !tbaa !10
  br label %Vec_IntGrow.exit.sink.split.i.i.i.i

31:                                               ; preds = %16
  br i1 %.not.i.i.not.i.i.i, label %Vec_IntGrow.exit.i.i.i.i, label %32

32:                                               ; preds = %31
  %33 = getelementptr inbounds nuw i8, ptr %.val22, i64 232
  %34 = load ptr, ptr %33, align 8, !tbaa !10
  %.not9.i21.i.i.i.i = icmp eq ptr %34, null
  %35 = sext i32 %18 to i64
  %36 = shl nsw i64 %35, 2
  br i1 %.not9.i21.i.i.i.i, label %39, label %37

37:                                               ; preds = %32
  %38 = tail call ptr @realloc(ptr noundef nonnull %34, i64 noundef %36) #11
  br label %41

39:                                               ; preds = %32
  %40 = tail call noalias ptr @malloc(i64 noundef %36) #10
  br label %41

41:                                               ; preds = %39, %37
  %42 = phi ptr [ %38, %37 ], [ %40, %39 ]
  store ptr %42, ptr %33, align 8, !tbaa !10
  br label %Vec_IntGrow.exit.sink.split.i.i.i.i

Vec_IntGrow.exit.sink.split.i.i.i.i:              ; preds = %41, %29
  %.sink.i.i.i.i = phi i32 [ %18, %41 ], [ %13, %29 ]
  store i32 %.sink.i.i.i.i, ptr %12, align 8, !tbaa !55
  %.pre.i.i.i = load i32, ptr %14, align 4, !tbaa !56
  br label %Vec_IntGrow.exit.i.i.i.i

Vec_IntGrow.exit.i.i.i.i:                         ; preds = %Vec_IntGrow.exit.sink.split.i.i.i.i, %31, %19
  %43 = phi i32 [ %.pre.i.i.i, %Vec_IntGrow.exit.sink.split.i.i.i.i ], [ %15, %31 ], [ %15, %19 ]
  %.not4.i.i.i = icmp sgt i32 %43, %.val23
  br i1 %.not4.i.i.i, label %._crit_edge.i.i.i.i, label %.lr.ph.i.i.i.i

.lr.ph.i.i.i.i:                                   ; preds = %Vec_IntGrow.exit.i.i.i.i
  %44 = getelementptr inbounds nuw i8, ptr %.val22, i64 232
  %45 = load ptr, ptr %44, align 8, !tbaa !10
  %46 = sext i32 %43 to i64
  %47 = shl nsw i64 %46, 2
  %scevgep.i.i.i.i = getelementptr i8, ptr %45, i64 %47
  %48 = sub i32 %.val23, %43
  %49 = zext i32 %48 to i64
  %50 = shl nuw nsw i64 %49, 2
  %51 = add nuw nsw i64 %50, 4
  tail call void @llvm.memset.p0.i64(ptr noundef nonnull align 4 dereferenceable(1) %scevgep.i.i.i.i, i8 0, i64 %51, i1 false), !tbaa !3
  br label %._crit_edge.i.i.i.i

._crit_edge.i.i.i.i:                              ; preds = %.lr.ph.i.i.i.i, %Vec_IntGrow.exit.i.i.i.i
  store i32 %13, ptr %14, align 4, !tbaa !56
  br label %Abc_NodeSetTravIdCurrent.exit

Abc_NodeSetTravIdCurrent.exit:                    ; preds = %8, %._crit_edge.i.i.i.i
  %52 = getelementptr i8, ptr %.val22, i64 232
  %.val.i.i.i = load ptr, ptr %52, align 8, !tbaa !10
  %53 = sext i32 %.val23 to i64
  %54 = getelementptr inbounds i32, ptr %.val.i.i.i, i64 %53
  store i32 %11, ptr %54, align 4, !tbaa !3
  %55 = getelementptr i8, ptr %0, i64 20
  %.val24 = load i32, ptr %55, align 4
  %56 = and i32 %.val24, 15
  %.not25 = icmp eq i32 %56, 5
  br i1 %.not25, label %60, label %.preheader

.preheader:                                       ; preds = %Abc_NodeSetTravIdCurrent.exit
  %57 = getelementptr i8, ptr %0, i64 28
  %.val1926 = load i32, ptr %57, align 4, !tbaa !46
  %58 = icmp sgt i32 %.val1926, 0
  br i1 %58, label %.lr.ph, label %.critedge

.lr.ph:                                           ; preds = %.preheader
  %59 = getelementptr i8, ptr %0, i64 32
  br label %71

common.ret29:                                     ; preds = %.critedge, %3, %60
  %common.ret29.op = phi i32 [ %67, %60 ], [ %7, %3 ], [ %82, %.critedge ]
  ret i32 %common.ret29.op

60:                                               ; preds = %Abc_NodeSetTravIdCurrent.exit
  %.val = load ptr, ptr %0, align 8, !tbaa !38
  %61 = getelementptr i8, ptr %0, i64 32
  %.val18 = load ptr, ptr %61, align 8, !tbaa !41
  %62 = getelementptr i8, ptr %.val, i64 32
  %.val.val = load ptr, ptr %62, align 8, !tbaa !42
  %.val18.val = load i32, ptr %.val18, align 4, !tbaa !3
  %63 = getelementptr i8, ptr %.val.val, i64 8
  %.val.val.val = load ptr, ptr %63, align 8, !tbaa !35
  %64 = sext i32 %.val18.val to i64
  %65 = getelementptr inbounds ptr, ptr %.val.val.val, i64 %64
  %66 = load ptr, ptr %65, align 8, !tbaa !36
  %67 = tail call i32 @Abc_NtkRetimeMinAreaInitValues_rec(ptr noundef %66)
  %68 = sext i32 %67 to i64
  %69 = inttoptr i64 %68 to ptr
  %70 = getelementptr inbounds nuw i8, ptr %0, i64 64
  store ptr %69, ptr %70, align 8, !tbaa !58
  br label %common.ret29

71:                                               ; preds = %.lr.ph, %71
  %indvars.iv = phi i64 [ 0, %.lr.ph ], [ %indvars.iv.next, %71 ]
  %.val20 = load ptr, ptr %0, align 8, !tbaa !38
  %.val21 = load ptr, ptr %59, align 8, !tbaa !41
  %72 = getelementptr i8, ptr %.val20, i64 32
  %.val20.val = load ptr, ptr %72, align 8, !tbaa !42
  %73 = getelementptr i8, ptr %.val20.val, i64 8
  %.val20.val.val = load ptr, ptr %73, align 8, !tbaa !35
  %74 = getelementptr inbounds nuw i32, ptr %.val21, i64 %indvars.iv
  %75 = load i32, ptr %74, align 4, !tbaa !3
  %76 = sext i32 %75 to i64
  %77 = getelementptr inbounds ptr, ptr %.val20.val.val, i64 %76
  %78 = load ptr, ptr %77, align 8, !tbaa !36
  %79 = tail call i32 @Abc_NtkRetimeMinAreaInitValues_rec(ptr noundef %78)
  %indvars.iv.next = add nuw nsw i64 %indvars.iv, 1
  %.val19 = load i32, ptr %57, align 4, !tbaa !46
  %80 = sext i32 %.val19 to i64
  %81 = icmp slt i64 %indvars.iv.next, %80
  br i1 %81, label %71, label %.critedge, !llvm.loop !72

.critedge:                                        ; preds = %71, %.preheader
  %82 = tail call i32 @Abc_ObjSopSimulate(ptr noundef nonnull %0) #9
  %83 = sext i32 %82 to i64
  %84 = inttoptr i64 %83 to ptr
  %85 = getelementptr inbounds nuw i8, ptr %0, i64 64
  store ptr %84, ptr %85, align 8, !tbaa !58
  br label %common.ret29
}